target datalayout = "e-m:e-p270:32:32-p271:32:32-p272:64:64-i64:64-i128:128-f80:128-n8:16:32:64-S128"
target triple = "x86_64-pc-linux-gnu"

@hf_digit = internal global i32 0, align 4
@date_format = internal global i32 1, align 4

; Function Attrs: nounwind null_pointer_is_valid sspstrong uwtable
define internal signext i8 @camel_number_to_char(i32 noundef %0) #2 {
  %2 = alloca i8, align 1
  %3 = alloca i32, align 4
  store i32 %0, ptr %3, align 4
  %4 = load i32, ptr %3, align 4
  %5 = icmp slt i32 %4, 10
  br i1 %5, label %6, label %10

6:                                                ; preds = %1
  %7 = load i32, ptr %3, align 4
  %8 = add i32 %7, 48
  %9 = trunc i32 %8 to i8
  store i8 %9, ptr %2, align 1
  br label %14

10:                                               ; preds = %1
  %11 = load i32, ptr %3, align 4
  %12 = add i32 %11, 55
  %13 = trunc i32 %12 to i8
  store i8 %13, ptr %2, align 1
  br label %14

14:                                               ; preds = %10, %6
  %15 = load i8, ptr %2, align 1
  ret i8 %15
}

; Function Attrs: null_pointer_is_valid sspstrong uwtable
define internal i32 @dissect_camel_DateAndTime(i1 noundef zeroext %0, ptr noundef %1, i32 noundef %2, ptr noundef %3, ptr noundef %4, i32 noundef %5) #0 {
  %7 = alloca i8, align 1
  %8 = alloca ptr, align 8
  %9 = alloca i32, align 4
  %10 = alloca ptr, align 8
  %11 = alloca ptr, align 8
  %12 = alloca i32, align 4
  %13 = alloca i8, align 1
  %14 = alloca i8, align 1
  %15 = alloca i8, align 1
  %16 = alloca [20 x i8], align 16
  %17 = alloca [20 x i8], align 16
  %18 = zext i1 %0 to i8
  store i8 %18, ptr %7, align 1
  store ptr %1, ptr %8, align 8
  store i32 %2, ptr %9, align 4
  store ptr %3, ptr %10, align 8
  store ptr %4, ptr %11, align 8
  store i32 %5, ptr %12, align 4
  call void @llvm.lifetime.start.p0(i64 1, ptr %13) #11
  call void @llvm.lifetime.start.p0(i64 1, ptr %14) #11
  store i8 0, ptr %14, align 1
  call void @llvm.lifetime.start.p0(i64 1, ptr %15) #11
  call void @llvm.lifetime.start.p0(i64 20, ptr %16) #11
  call void @llvm.lifetime.start.p0(i64 20, ptr %17) #11
  store i8 0, ptr %15, align 1
  br label %19

19:                                               ; preds = %64, %6
  %20 = load i8, ptr %15, align 1
  %21 = zext i8 %20 to i32
  %22 = icmp slt i32 %21, 7
  br i1 %22, label %23, label %67

23:                                               ; preds = %19
  %24 = load ptr, ptr %8, align 8
  %25 = load i8, ptr %15, align 1
  %26 = zext i8 %25 to i32
  %27 = call zeroext i8 @tvb_get_uint8(ptr noundef %24, i32 noundef %26)
  store i8 %27, ptr %13, align 1
  %28 = load ptr, ptr %11, align 8
  %29 = load i32, ptr @hf_digit, align 4
  %30 = load ptr, ptr %8, align 8
  %31 = load i8, ptr %15, align 1
  %32 = zext i8 %31 to i32
  %33 = load i8, ptr %13, align 1
  %34 = zext i8 %33 to i32
  %35 = and i32 %34, 15
  %36 = call ptr @proto_tree_add_uint(ptr noundef %28, i32 noundef %29, ptr noundef %30, i32 noundef %32, i32 noundef 1, i32 noundef %35)
  %37 = load ptr, ptr %11, align 8
  %38 = load i32, ptr @hf_digit, align 4
  %39 = load ptr, ptr %8, align 8
  %40 = load i8, ptr %15, align 1
  %41 = zext i8 %40 to i32
  %42 = load i8, ptr %13, align 1
  %43 = zext i8 %42 to i32
  %44 = ashr i32 %43, 4
  %45 = call ptr @proto_tree_add_uint(ptr noundef %37, i32 noundef %38, ptr noundef %39, i32 noundef %41, i32 noundef 1, i32 noundef %44)
  %46 = load i8, ptr %13, align 1
  %47 = zext i8 %46 to i32
  %48 = and i32 %47, 15
  %49 = call signext i8 @camel_number_to_char(i32 noundef %48)
  %50 = load i8, ptr %14, align 1
  %51 = zext i8 %50 to i64
  %52 = getelementptr [20 x i8], ptr %17, i64 0, i64 %51
  store i8 %49, ptr %52, align 1
  %53 = load i8, ptr %14, align 1
  %54 = add i8 %53, 1
  store i8 %54, ptr %14, align 1
  %55 = load i8, ptr %13, align 1
  %56 = zext i8 %55 to i32
  %57 = ashr i32 %56, 4
  %58 = call signext i8 @camel_number_to_char(i32 noundef %57)
  %59 = load i8, ptr %14, align 1
  %60 = zext i8 %59 to i64
  %61 = getelementptr [20 x i8], ptr %17, i64 0, i64 %60
  store i8 %58, ptr %61, align 1
  %62 = load i8, ptr %14, align 1
  %63 = add i8 %62, 1
  store i8 %63, ptr %14, align 1
  br label %64

64:                                               ; preds = %23
  %65 = load i8, ptr %15, align 1
  %66 = add i8 %65, 1
  store i8 %66, ptr %15, align 1
  br label %19, !llvm.loop !13

67:                                               ; preds = %19
  %68 = getelementptr [20 x i8], ptr %17, i64 0, i64 8
  %69 = load i8, ptr %68, align 8
  %70 = getelementptr [20 x i8], ptr %16, i64 0, i64 0
  store i8 %69, ptr %70, align 16
  %71 = getelementptr [20 x i8], ptr %17, i64 0, i64 9
  %72 = load i8, ptr %71, align 1
  %73 = getelementptr [20 x i8], ptr %16, i64 0, i64 1
  store i8 %72, ptr %73, align 1
  %74 = getelementptr [20 x i8], ptr %16, i64 0, i64 2
  store i8 58, ptr %74, align 2
  %75 = getelementptr [20 x i8], ptr %17, i64 0, i64 10
  %76 = load i8, ptr %75, align 2
  %77 = getelementptr [20 x i8], ptr %16, i64 0, i64 3
  store i8 %76, ptr %77, align 1
  %78 = getelementptr [20 x i8], ptr %17, i64 0, i64 11
  %79 = load i8, ptr %78, align 1
  %80 = getelementptr [20 x i8], ptr %16, i64 0, i64 4
  store i8 %79, ptr %80, align 4
  %81 = getelementptr [20 x i8], ptr %16, i64 0, i64 5
  store i8 58, ptr %81, align 1
  %82 = getelementptr [20 x i8], ptr %17, i64 0, i64 12
  %83 = load i8, ptr %82, align 4
  %84 = getelementptr [20 x i8], ptr %16, i64 0, i64 6
  store i8 %83, ptr %84, align 2
  %85 = getelementptr [20 x i8], ptr %17, i64 0, i64 13
  %86 = load i8, ptr %85, align 1
  %87 = getelementptr [20 x i8], ptr %16, i64 0, i64 7
  store i8 %86, ptr %87, align 1
  %88 = getelementptr [20 x i8], ptr %16, i64 0, i64 8
  store i8 59, ptr %88, align 8
  %89 = load i32, ptr @date_format, align 4
  %90 = icmp eq i32 1, %89
  br i1 %90, label %91, label %105

91:                                               ; preds = %67
  %92 = getelementptr [20 x i8], ptr %17, i64 0, i64 6
  %93 = load i8, ptr %92, align 2
  %94 = getelementptr [20 x i8], ptr %16, i64 0, i64 9
  store i8 %93, ptr %94, align 1
  %95 = getelementptr [20 x i8], ptr %17, i64 0, i64 7
  %96 = load i8, ptr %95, align 1
  %97 = getelementptr [20 x i8], ptr %16, i64 0, i64 10
  store i8 %96, ptr %97, align 2
  %98 = getelementptr [20 x i8], ptr %16, i64 0, i64 11
  store i8 47, ptr %98, align 1
  %99 = getelementptr [20 x i8], ptr %17, i64 0, i64 4
  %100 = load i8, ptr %99, align 4
  %101 = getelementptr [20 x i8], ptr %16, i64 0, i64 12
  store i8 %100, ptr %101, align 4
  %102 = getelementptr [20 x i8], ptr %17, i64 0, i64 5
  %103 = load i8, ptr %102, align 1
  %104 = getelementptr [20 x i8], ptr %16, i64 0, i64 13
  store i8 %103, ptr %104, align 1
  br label %119

105:                                              ; preds = %67
  %106 = getelementptr [20 x i8], ptr %17, i64 0, i64 4
  %107 = load i8, ptr %106, align 4
  %108 = getelementptr [20 x i8], ptr %16, i64 0, i64 9
  store i8 %107, ptr %108, align 1
  %109 = getelementptr [20 x i8], ptr %17, i64 0, i64 5
  %110 = load i8, ptr %109, align 1
  %111 = getelementptr [20 x i8], ptr %16, i64 0, i64 10
  store i8 %110, ptr %111, align 2
  %112 = getelementptr [20 x i8], ptr %16, i64 0, i64 11
  store i8 47, ptr %112, align 1
  %113 = getelementptr [20 x i8], ptr %17, i64 0, i64 6
  %114 = load i8, ptr %113, align 2
  %115 = getelementptr [20 x i8], ptr %16, i64 0, i64 12
  store i8 %114, ptr %115, align 4
  %116 = getelementptr [20 x i8], ptr %17, i64 0, i64 7
  %117 = load i8, ptr %116, align 1
  %118 = getelementptr [20 x i8], ptr %16, i64 0, i64 13
  store i8 %117, ptr %118, align 1
  br label %119

119:                                              ; preds = %105, %91
  %120 = getelementptr [20 x i8], ptr %16, i64 0, i64 14
  store i8 47, ptr %120, align 2
  %121 = getelementptr [20 x i8], ptr %17, i64 0, i64 0
  %122 = load i8, ptr %121, align 16
  %123 = getelementptr [20 x i8], ptr %16, i64 0, i64 15
  store i8 %122, ptr %123, align 1
  %124 = getelementptr [20 x i8], ptr %17, i64 0, i64 1
  %125 = load i8, ptr %124, align 1
  %126 = getelementptr [20 x i8], ptr %16, i64 0, i64 16
  store i8 %125, ptr %126, align 16
  %127 = getelementptr [20 x i8], ptr %17, i64 0, i64 2
  %128 = load i8, ptr %127, align 2
  %129 = getelementptr [20 x i8], ptr %16, i64 0, i64 17
  store i8 %128, ptr %129, align 1
  %130 = getelementptr [20 x i8], ptr %17, i64 0, i64 3
  %131 = load i8, ptr %130, align 1
  %132 = getelementptr [20 x i8], ptr %16, i64 0, i64 18
  store i8 %131, ptr %132, align 2
  %133 = getelementptr [20 x i8], ptr %16, i64 0, i64 19
  store i8 0, ptr %133, align 1
  %134 = load ptr, ptr %11, align 8
  %135 = load i32, ptr %12, align 4
  %136 = load ptr, ptr %8, align 8
  %137 = getelementptr inbounds [20 x i8], ptr %16, i64 0, i64 0
  %138 = call ptr @proto_tree_add_string(ptr noundef %134, i32 noundef %135, ptr noundef %136, i32 noundef 0, i32 noundef 7, ptr noundef %137)
  call void @llvm.lifetime.end.p0(i64 20, ptr %17) #11
  call void @llvm.lifetime.end.p0(i64 20, ptr %16) #11
  call void @llvm.lifetime.end.p0(i64 1, ptr %15) #11
  call void @llvm.lifetime.end.p0(i64 1, ptr %14) #11
  call void @llvm.lifetime.end.p0(i64 1, ptr %13) #11
  ret i32 7
}