; Function Attrs: null_pointer_is_valid sspstrong uwtable
define internal noundef i32 @dissect_camel_DateAndTime(i1 zeroext %0, ptr noundef %1, i32 %2, ptr readnone captures(none) %3, ptr noundef %4, i32 noundef %5) #0 {
  %7 = alloca [20 x i8], align 16
  %8 = alloca [20 x i8], align 16
  call void @llvm.lifetime.start.p0(i64 20, ptr nonnull %7) #12
  call void @llvm.lifetime.start.p0(i64 20, ptr nonnull %8) #12
  %.sink.sroa.gep = getelementptr inbounds nuw i8, ptr %8, i64 7
  %.sink.sroa.gep34 = getelementptr inbounds nuw i8, ptr %8, i64 5
  br label %9

9:                                                ; preds = %6, %9
  %indvars.iv25 = phi i64 [ 0, %6 ], [ %indvars.iv.next26, %9 ]
  %indvars.iv = phi i32 [ 0, %6 ], [ %indvars.iv.next, %9 ]
  %10 = tail call zeroext i8 @tvb_get_uint8(ptr noundef %1, i32 noundef %indvars.iv)
  %11 = load i32, ptr @hf_digit, align 4
  %12 = zext i8 %10 to i32
  %13 = and i32 %12, 15
  %14 = tail call ptr @proto_tree_add_uint(ptr noundef %4, i32 noundef %11, ptr noundef %1, i32 noundef %indvars.iv, i32 noundef 1, i32 noundef %13)
  %15 = load i32, ptr @hf_digit, align 4
  %16 = lshr i32 %12, 4
  %17 = tail call ptr @proto_tree_add_uint(ptr noundef %4, i32 noundef %15, ptr noundef %1, i32 noundef %indvars.iv, i32 noundef 1, i32 noundef %16)
  %18 = icmp samesign ult i32 %13, 10
  %19 = trunc nuw nsw i32 %13 to i8
  %20 = or disjoint i8 %19, 48
  %21 = add nuw nsw i8 %19, 55
  %.0.i = select i1 %18, i8 %20, i8 %21
  %22 = getelementptr [20 x i8], ptr %8, i64 0, i64 %indvars.iv25
  store i8 %.0.i, ptr %22, align 2
  %23 = or disjoint i64 %indvars.iv25, 1
  %24 = icmp ult i8 %10, -96
  %25 = trunc nuw nsw i32 %16 to i8
  %26 = or disjoint i8 %25, 48
  %27 = add nuw nsw i8 %25, 55
  %.0.i22 = select i1 %24, i8 %26, i8 %27
  %28 = getelementptr [20 x i8], ptr %8, i64 0, i64 %23
  store i8 %.0.i22, ptr %28, align 1
  %indvars.iv.next26 = add nuw nsw i64 %indvars.iv25, 2
  %indvars.iv.next = add nuw nsw i32 %indvars.iv, 1
  %exitcond.not = icmp eq i32 %indvars.iv.next, 7
  br i1 %exitcond.not, label %29, label %9, !llvm.loop !13

29:                                               ; preds = %9
  %30 = getelementptr inbounds nuw i8, ptr %8, i64 8
  %31 = load i8, ptr %30, align 8
  store i8 %31, ptr %7, align 16
  %32 = getelementptr inbounds nuw i8, ptr %8, i64 9
  %33 = load i8, ptr %32, align 1
  %34 = getelementptr inbounds nuw i8, ptr %7, i64 1
  store i8 %33, ptr %34, align 1
  %35 = getelementptr inbounds nuw i8, ptr %7, i64 2
  store i8 58, ptr %35, align 2
  %36 = getelementptr inbounds nuw i8, ptr %8, i64 10
  %37 = load i8, ptr %36, align 2
  %38 = getelementptr inbounds nuw i8, ptr %7, i64 3
  store i8 %37, ptr %38, align 1
  %39 = getelementptr inbounds nuw i8, ptr %8, i64 11
  %40 = load i8, ptr %39, align 1
  %41 = getelementptr inbounds nuw i8, ptr %7, i64 4
  store i8 %40, ptr %41, align 4
  %42 = getelementptr inbounds nuw i8, ptr %7, i64 5
  store i8 58, ptr %42, align 1
  %43 = getelementptr inbounds nuw i8, ptr %8, i64 12
  %44 = load i8, ptr %43, align 4
  %45 = getelementptr inbounds nuw i8, ptr %7, i64 6
  store i8 %44, ptr %45, align 2
  %46 = getelementptr inbounds nuw i8, ptr %8, i64 13
  %47 = load i8, ptr %46, align 1
  %48 = getelementptr inbounds nuw i8, ptr %7, i64 7
  store i8 %47, ptr %48, align 1
  %49 = getelementptr inbounds nuw i8, ptr %7, i64 8
  store i8 59, ptr %49, align 8
  %50 = load i32, ptr @date_format, align 4
  %51 = icmp eq i32 %50, 1
  br i1 %51, label %52, label %59

52:                                               ; preds = %29
  %53 = getelementptr inbounds nuw i8, ptr %8, i64 6
  %54 = load i8, ptr %53, align 2
  %55 = getelementptr inbounds nuw i8, ptr %8, i64 7
  %56 = load i8, ptr %55, align 1
  %57 = getelementptr inbounds nuw i8, ptr %8, i64 4
  %58 = load i8, ptr %57, align 4
  br label %66

59:                                               ; preds = %29
  %60 = getelementptr inbounds nuw i8, ptr %8, i64 4
  %61 = load i8, ptr %60, align 4
  %62 = getelementptr inbounds nuw i8, ptr %8, i64 5
  %63 = load i8, ptr %62, align 1
  %64 = getelementptr inbounds nuw i8, ptr %8, i64 6
  %65 = load i8, ptr %64, align 2
  br label %66

66:                                               ; preds = %59, %52
  %.sink.sroa.phi = phi ptr [ %.sink.sroa.gep, %59 ], [ %.sink.sroa.gep34, %52 ]
  %.sink32 = phi i8 [ %61, %59 ], [ %54, %52 ]
  %.sink31 = phi i8 [ %63, %59 ], [ %56, %52 ]
  %.sink30 = phi i8 [ %65, %59 ], [ %58, %52 ]
  %67 = load i8, ptr %.sink.sroa.phi, align 1
  %68 = getelementptr inbounds nuw i8, ptr %7, i64 9
  store i8 %.sink32, ptr %68, align 1
  %69 = getelementptr inbounds nuw i8, ptr %7, i64 10
  store i8 %.sink31, ptr %69, align 2
  %70 = getelementptr inbounds nuw i8, ptr %7, i64 11
  store i8 47, ptr %70, align 1
  %71 = getelementptr inbounds nuw i8, ptr %7, i64 12
  store i8 %.sink30, ptr %71, align 4
  %72 = getelementptr inbounds nuw i8, ptr %7, i64 13
  store i8 %67, ptr %72, align 1
  %73 = getelementptr inbounds nuw i8, ptr %7, i64 14
  store i8 47, ptr %73, align 2
  %74 = load i8, ptr %8, align 16
  %75 = getelementptr inbounds nuw i8, ptr %7, i64 15
  store i8 %74, ptr %75, align 1
  %76 = getelementptr inbounds nuw i8, ptr %8, i64 1
  %77 = load i8, ptr %76, align 1
  %78 = getelementptr inbounds nuw i8, ptr %7, i64 16
  store i8 %77, ptr %78, align 16
  %79 = getelementptr inbounds nuw i8, ptr %8, i64 2
  %80 = load i8, ptr %79, align 2
  %81 = getelementptr inbounds nuw i8, ptr %7, i64 17
  store i8 %80, ptr %81, align 1
  %82 = getelementptr inbounds nuw i8, ptr %8, i64 3
  %83 = load i8, ptr %82, align 1
  %84 = getelementptr inbounds nuw i8, ptr %7, i64 18
  store i8 %83, ptr %84, align 2
  %85 = getelementptr inbounds nuw i8, ptr %7, i64 19
  store i8 0, ptr %85, align 1
  %86 = call ptr @proto_tree_add_string(ptr noundef %4, i32 noundef %5, ptr noundef %1, i32 noundef 0, i32 noundef 7, ptr noundef nonnull %7)
  call void @llvm.lifetime.end.p0(i64 20, ptr nonnull %8) #12
  call void @llvm.lifetime.end.p0(i64 20, ptr nonnull %7) #12
  ret i32 7
}